target datalayout = "e-m:e-p270:32:32-p271:32:32-p272:64:64-i64:64-i128:128-f80:128-n8:16:32:64-S128"
target triple = "x86_64-pc-linux-gnu"

%struct.ZSTD_customMem = type { ptr, ptr, ptr }
%struct.ZSTD_frameParameters = type { i32, i32, i32 }
%struct.ZSTD_compressionParameters = type { i32, i32, i32, i32, i32, i32, i32 }
%struct.ZSTD_CCtx_s = type { i32, i32, i32, %struct.ZSTD_CCtx_params_s, %struct.ZSTD_CCtx_params_s, %struct.ZSTD_CCtx_params_s, i32, i64, %struct.ZSTD_cwksp, i64, i64, i64, i64, %struct.XXH64_state_s, %struct.ZSTD_customMem, ptr, i64, %struct.SeqCollector, i32, i32, %struct.SeqStore_t, %struct.ldmState_t, ptr, i64, %struct.RawSeqStore_t, %struct.ZSTD_blockState_t, ptr, i64, i32, ptr, i64, i64, i64, i64, ptr, i64, i64, i64, i32, i32, %struct.ZSTD_inBuffer_s, i64, i64, %struct.ZSTD_localDict, ptr, %struct.ZSTD_prefixDict_s, ptr, i64, %struct.ZSTD_blockSplitCtx, ptr, i64 }
%struct.ZSTD_CCtx_params_s = type { i32, %struct.ZSTD_compressionParameters, %struct.ZSTD_frameParameters, i32, i32, i64, i32, i32, i32, i32, i64, i32, i32, %struct.ldmParams_t, i32, i32, i32, i32, i32, i32, i32, i64, i32, i32, %struct.ZSTD_customMem, i32, i32, ptr, ptr, i32 }
%struct.ldmParams_t = type { i32, i32, i32, i32, i32, i32 }
%struct.ZSTD_cwksp = type { ptr, ptr, ptr, ptr, ptr, ptr, ptr, i8, i32, i32, i32 }
%struct.XXH64_state_s = type { i64, [4 x i64], [4 x i64], i32, i32, i64 }
%struct.SeqCollector = type { i32, ptr, i64, i64 }
%struct.SeqStore_t = type { ptr, ptr, ptr, ptr, ptr, ptr, ptr, i64, i64, i32, i32 }
%struct.ldmState_t = type { %struct.ZSTD_window_t, ptr, i32, ptr, [64 x i64], [64 x %struct.ldmMatchCandidate_t] }
%struct.ZSTD_window_t = type { ptr, ptr, ptr, i32, i32, i32 }
%struct.ldmMatchCandidate_t = type { ptr, i32, i32, ptr }
%struct.RawSeqStore_t = type { ptr, i64, i64, i64, i64 }
%struct.ZSTD_blockState_t = type { ptr, ptr, %struct.ZSTD_MatchState_t }
%struct.ZSTD_MatchState_t = type { %struct.ZSTD_window_t, i32, i32, i32, i32, ptr, [8 x i32], i64, i32, ptr, ptr, ptr, i32, i32, %struct.optState_t, ptr, %struct.ZSTD_compressionParameters, ptr, i32, i32 }
%struct.optState_t = type { ptr, ptr, ptr, ptr, ptr, ptr, i32, i32, i32, i32, i32, i32, i32, i32, i32, ptr, i32 }
%struct.ZSTD_inBuffer_s = type { ptr, i64, i64 }
%struct.ZSTD_localDict = type { ptr, ptr, i64, i32, ptr }
%struct.ZSTD_prefixDict_s = type { ptr, i64, i32 }
%struct.ZSTD_blockSplitCtx = type { %struct.SeqStore_t, %struct.SeqStore_t, %struct.SeqStore_t, %struct.SeqStore_t, %struct.SeqStore_t, [196 x i32], %struct.ZSTD_entropyCTablesMetadata_t }
%struct.ZSTD_entropyCTablesMetadata_t = type { %struct.ZSTD_hufCTablesMetadata_t, %struct.ZSTD_fseCTablesMetadata_t }
%struct.ZSTD_hufCTablesMetadata_t = type { i32, [128 x i8], i64 }
%struct.ZSTD_fseCTablesMetadata_t = type { i32, i32, i32, [133 x i8], i64, i64 }

; Function Attrs: nounwind uwtable
define i64 @ZSTD_CCtxParams_init(ptr noundef %0, i32 noundef %1) #0 {
  %3 = alloca i64, align 8
  %4 = alloca ptr, align 8
  %5 = alloca i32, align 4
  store ptr %0, ptr %4, align 8, !tbaa !79
  store i32 %1, ptr %5, align 4, !tbaa !53
  br label %6

6:                                                ; preds = %2
  %7 = load ptr, ptr %4, align 8, !tbaa !79
  %8 = icmp ne ptr %7, null
  br i1 %8, label %18, label %9

9:                                                ; preds = %6
  br label %10

10:                                               ; preds = %9
  br label %11

11:                                               ; preds = %10
  br label %12

12:                                               ; preds = %11
  br label %13

13:                                               ; preds = %12
  br label %14

14:                                               ; preds = %13
  br label %15

15:                                               ; preds = %14
  br label %16

16:                                               ; preds = %15
  br label %17

17:                                               ; preds = %16
  store i64 -1, ptr %3, align 8
  br label %27

18:                                               ; preds = %6
  br label %19

19:                                               ; preds = %18
  %20 = load ptr, ptr %4, align 8, !tbaa !79
  call void @llvm.memset.p0.i64(ptr align 8 %20, i8 0, i64 224, i1 false)
  %21 = load i32, ptr %5, align 4, !tbaa !53
  %22 = load ptr, ptr %4, align 8, !tbaa !79
  %23 = getelementptr inbounds nuw %struct.ZSTD_CCtx_params_s, ptr %22, i32 0, i32 3
  store i32 %21, ptr %23, align 4, !tbaa !81
  %24 = load ptr, ptr %4, align 8, !tbaa !79
  %25 = getelementptr inbounds nuw %struct.ZSTD_CCtx_params_s, ptr %24, i32 0, i32 2
  %26 = getelementptr inbounds nuw %struct.ZSTD_frameParameters, ptr %25, i32 0, i32 0
  store i32 1, ptr %26, align 8, !tbaa !82
  store i64 0, ptr %3, align 8
  br label %27

27:                                               ; preds = %19, %17
  %28 = load i64, ptr %3, align 8
  ret i64 %28
}

; Function Attrs: nounwind uwtable
define i64 @ZSTD_CCtxParams_reset(ptr noundef %0) #0 {
  %2 = alloca ptr, align 8
  store ptr %0, ptr %2, align 8, !tbaa !79
  %3 = load ptr, ptr %2, align 8, !tbaa !79
  %4 = call i64 @ZSTD_CCtxParams_init(ptr noundef %3, i32 noundef 3)
  ret i64 %4
}

; Function Attrs: nounwind uwtable
define i64 @ZSTD_CCtx_refCDict(ptr noundef %0, ptr noundef %1) #0 {
  %3 = alloca i64, align 8
  %4 = alloca ptr, align 8
  %5 = alloca ptr, align 8
  store ptr %0, ptr %4, align 8, !tbaa !11
  store ptr %1, ptr %5, align 8, !tbaa !148
  br label %6

6:                                                ; preds = %2
  %7 = load ptr, ptr %4, align 8, !tbaa !11
  %8 = getelementptr inbounds nuw %struct.ZSTD_CCtx_s, ptr %7, i32 0, i32 38
  %9 = load i32, ptr %8, align 8, !tbaa !102
  %10 = icmp ne i32 %9, 0
  br i1 %10, label %11, label %20

11:                                               ; preds = %6
  br label %12

12:                                               ; preds = %11
  br label %13

13:                                               ; preds = %12
  br label %14

14:                                               ; preds = %13
  br label %15

15:                                               ; preds = %14
  br label %16

16:                                               ; preds = %15
  br label %17

17:                                               ; preds = %16
  br label %18

18:                                               ; preds = %17
  br label %19

19:                                               ; preds = %18
  store i64 -60, ptr %3, align 8
  br label %26

20:                                               ; preds = %6
  br label %21

21:                                               ; preds = %20
  %22 = load ptr, ptr %4, align 8, !tbaa !11
  call void @ZSTD_clearAllDicts(ptr noundef %22)
  %23 = load ptr, ptr %5, align 8, !tbaa !148
  %24 = load ptr, ptr %4, align 8, !tbaa !11
  %25 = getelementptr inbounds nuw %struct.ZSTD_CCtx_s, ptr %24, i32 0, i32 44
  store ptr %23, ptr %25, align 8, !tbaa !136
  store i64 0, ptr %3, align 8
  br label %26

26:                                               ; preds = %21, %19
  %27 = load i64, ptr %3, align 8
  ret i64 %27
}

; Function Attrs: nounwind uwtable
define i64 @ZSTD_CCtx_setPledgedSrcSize(ptr noundef %0, i64 noundef %1) #0 {
  %3 = alloca i64, align 8
  %4 = alloca ptr, align 8
  %5 = alloca i64, align 8
  store ptr %0, ptr %4, align 8, !tbaa !11
  store i64 %1, ptr %5, align 8, !tbaa !141
  br label %6

6:                                                ; preds = %2
  br label %7

7:                                                ; preds = %6
  br label %8

8:                                                ; preds = %7
  %9 = load ptr, ptr %4, align 8, !tbaa !11
  %10 = getelementptr inbounds nuw %struct.ZSTD_CCtx_s, ptr %9, i32 0, i32 38
  %11 = load i32, ptr %10, align 8, !tbaa !102
  %12 = icmp ne i32 %11, 0
  br i1 %12, label %13, label %22

13:                                               ; preds = %8
  br label %14

14:                                               ; preds = %13
  br label %15

15:                                               ; preds = %14
  br label %16

16:                                               ; preds = %15
  br label %17

17:                                               ; preds = %16
  br label %18

18:                                               ; preds = %17
  br label %19

19:                                               ; preds = %18
  br label %20

20:                                               ; preds = %19
  br label %21

21:                                               ; preds = %20
  store i64 -60, ptr %3, align 8
  br label %28

22:                                               ; preds = %8
  br label %23

23:                                               ; preds = %22
  %24 = load i64, ptr %5, align 8, !tbaa !141
  %25 = add i64 %24, 1
  %26 = load ptr, ptr %4, align 8, !tbaa !11
  %27 = getelementptr inbounds nuw %struct.ZSTD_CCtx_s, ptr %26, i32 0, i32 10
  store i64 %25, ptr %27, align 8, !tbaa !142
  store i64 0, ptr %3, align 8
  br label %28

28:                                               ; preds = %23, %21
  %29 = load i64, ptr %3, align 8
  ret i64 %29
}

; Function Attrs: nounwind uwtable
define internal i32 @ERR_isError(i64 noundef %0) #0 {
  %2 = alloca i64, align 8
  store i64 %0, ptr %2, align 8, !tbaa !3
  %3 = load i64, ptr %2, align 8, !tbaa !3
  %4 = icmp ugt i64 %3, -120
  %5 = zext i1 %4 to i32
  ret i32 %5
}

; Function Attrs: nounwind uwtable
define i64 @ZSTD_CCtx_reset(ptr noundef %0, i32 noundef %1) #0 {
  %3 = alloca i64, align 8
  %4 = alloca ptr, align 8
  %5 = alloca i32, align 4
  store ptr %0, ptr %4, align 8, !tbaa !11
  store i32 %1, ptr %5, align 4, !tbaa !53
  %6 = load i32, ptr %5, align 4, !tbaa !53
  %7 = icmp eq i32 %6, 1
  br i1 %7, label %11, label %8

8:                                                ; preds = %2
  %9 = load i32, ptr %5, align 4, !tbaa !53
  %10 = icmp eq i32 %9, 3
  br i1 %10, label %11, label %16

11:                                               ; preds = %8, %2
  %12 = load ptr, ptr %4, align 8, !tbaa !11
  %13 = getelementptr inbounds nuw %struct.ZSTD_CCtx_s, ptr %12, i32 0, i32 38
  store i32 0, ptr %13, align 8, !tbaa !102
  %14 = load ptr, ptr %4, align 8, !tbaa !11
  %15 = getelementptr inbounds nuw %struct.ZSTD_CCtx_s, ptr %14, i32 0, i32 10
  store i64 0, ptr %15, align 8, !tbaa !142
  br label %16

16:                                               ; preds = %11, %8
  %17 = load i32, ptr %5, align 4, !tbaa !53
  %18 = icmp eq i32 %17, 2
  br i1 %18, label %22, label %19

19:                                               ; preds = %16
  %20 = load i32, ptr %5, align 4, !tbaa !53
  %21 = icmp eq i32 %20, 3
  br i1 %21, label %22, label %43

22:                                               ; preds = %19, %16
  br label %23

23:                                               ; preds = %22
  %24 = load ptr, ptr %4, align 8, !tbaa !11
  %25 = getelementptr inbounds nuw %struct.ZSTD_CCtx_s, ptr %24, i32 0, i32 38
  %26 = load i32, ptr %25, align 8, !tbaa !102
  %27 = icmp ne i32 %26, 0
  br i1 %27, label %28, label %37

28:                                               ; preds = %23
  br label %29

29:                                               ; preds = %28
  br label %30

30:                                               ; preds = %29
  br label %31

31:                                               ; preds = %30
  br label %32

32:                                               ; preds = %31
  br label %33

33:                                               ; preds = %32
  br label %34

34:                                               ; preds = %33
  br label %35

35:                                               ; preds = %34
  br label %36

36:                                               ; preds = %35
  store i64 -60, ptr %3, align 8
  br label %44

37:                                               ; preds = %23
  br label %38

38:                                               ; preds = %37
  %39 = load ptr, ptr %4, align 8, !tbaa !11
  call void @ZSTD_clearAllDicts(ptr noundef %39)
  %40 = load ptr, ptr %4, align 8, !tbaa !11
  %41 = getelementptr inbounds nuw %struct.ZSTD_CCtx_s, ptr %40, i32 0, i32 3
  %42 = call i64 @ZSTD_CCtxParams_reset(ptr noundef %41)
  store i64 %42, ptr %3, align 8
  br label %44

43:                                               ; preds = %19
  store i64 0, ptr %3, align 8
  br label %44

44:                                               ; preds = %43, %38, %36
  %45 = load i64, ptr %3, align 8
  ret i64 %45
}

; Function Attrs: nounwind uwtable
define i64 @ZSTD_initCStream_usingCDict_advanced(ptr noundef %0, ptr noundef %1, i64 %2, i32 %3, i64 noundef %4) #0 {
  %6 = alloca i64, align 8
  %7 = alloca %struct.ZSTD_frameParameters, align 4
  %8 = alloca { i64, i32 }, align 4
  %9 = alloca ptr, align 8
  %10 = alloca ptr, align 8
  %11 = alloca i64, align 8
  %12 = alloca i64, align 8
  %13 = alloca i32, align 4
  %14 = alloca i64, align 8
  %15 = alloca i64, align 8
  %16 = getelementptr inbounds nuw { i64, i32 }, ptr %8, i32 0, i32 0
  store i64 %2, ptr %16, align 4
  %17 = getelementptr inbounds nuw { i64, i32 }, ptr %8, i32 0, i32 1
  store i32 %3, ptr %17, align 4
  call void @llvm.memcpy.p0.p0.i64(ptr align 4 %7, ptr align 4 %8, i64 12, i1 false)
  store ptr %0, ptr %9, align 8, !tbaa !11
  store ptr %1, ptr %10, align 8, !tbaa !148
  store i64 %4, ptr %11, align 8, !tbaa !141
  br label %18

18:                                               ; preds = %5
  br label %19

19:                                               ; preds = %18
  br label %20

20:                                               ; preds = %19
  call void @llvm.lifetime.start.p0(i64 8, ptr %12) #15
  %21 = load ptr, ptr %9, align 8, !tbaa !11
  %22 = call i64 @ZSTD_CCtx_reset(ptr noundef %21, i32 noundef 1)
  store i64 %22, ptr %12, align 8, !tbaa !3
  %23 = load i64, ptr %12, align 8, !tbaa !3
  %24 = call i32 @ERR_isError(i64 noundef %23)
  %25 = icmp ne i32 %24, 0
  br i1 %25, label %26, label %40

26:                                               ; preds = %20
  br label %27

27:                                               ; preds = %26
  br label %28

28:                                               ; preds = %27
  br label %29

29:                                               ; preds = %28
  br label %30

30:                                               ; preds = %29
  br label %31

31:                                               ; preds = %30
  br label %32

32:                                               ; preds = %31
  br label %33

33:                                               ; preds = %32
  br label %34

34:                                               ; preds = %33
  br label %35

35:                                               ; preds = %34
  br label %36

36:                                               ; preds = %35
  br label %37

37:                                               ; preds = %36
  br label %38

38:                                               ; preds = %37
  %39 = load i64, ptr %12, align 8, !tbaa !3
  store i64 %39, ptr %6, align 8
  store i32 1, ptr %13, align 4
  br label %41

40:                                               ; preds = %20
  store i32 0, ptr %13, align 4
  br label %41

41:                                               ; preds = %40, %38
  call void @llvm.lifetime.end.p0(i64 8, ptr %12) #15
  %42 = load i32, ptr %13, align 4
  switch i32 %42, label %102 [
    i32 0, label %43
    i32 1, label %100
  ]

43:                                               ; preds = %41
  br label %44

44:                                               ; preds = %43
  br label %45

45:                                               ; preds = %44
  call void @llvm.lifetime.start.p0(i64 8, ptr %14) #15
  %46 = load ptr, ptr %9, align 8, !tbaa !11
  %47 = load i64, ptr %11, align 8, !tbaa !141
  %48 = call i64 @ZSTD_CCtx_setPledgedSrcSize(ptr noundef %46, i64 noundef %47)
  store i64 %48, ptr %14, align 8, !tbaa !3
  %49 = load i64, ptr %14, align 8, !tbaa !3
  %50 = call i32 @ERR_isError(i64 noundef %49)
  %51 = icmp ne i32 %50, 0
  br i1 %51, label %52, label %66

52:                                               ; preds = %45
  br label %53

53:                                               ; preds = %52
  br label %54

54:                                               ; preds = %53
  br label %55

55:                                               ; preds = %54
  br label %56

56:                                               ; preds = %55
  br label %57

57:                                               ; preds = %56
  br label %58

58:                                               ; preds = %57
  br label %59

59:                                               ; preds = %58
  br label %60

60:                                               ; preds = %59
  br label %61

61:                                               ; preds = %60
  br label %62

62:                                               ; preds = %61
  br label %63

63:                                               ; preds = %62
  br label %64

64:                                               ; preds = %63
  %65 = load i64, ptr %14, align 8, !tbaa !3
  store i64 %65, ptr %6, align 8
  store i32 1, ptr %13, align 4
  br label %67

66:                                               ; preds = %45
  store i32 0, ptr %13, align 4
  br label %67

67:                                               ; preds = %66, %64
  call void @llvm.lifetime.end.p0(i64 8, ptr %14) #15
  %68 = load i32, ptr %13, align 4
  switch i32 %68, label %102 [
    i32 0, label %69
    i32 1, label %100
  ]

69:                                               ; preds = %67
  br label %70

70:                                               ; preds = %69
  %71 = load ptr, ptr %9, align 8, !tbaa !11
  %72 = getelementptr inbounds nuw %struct.ZSTD_CCtx_s, ptr %71, i32 0, i32 3
  %73 = getelementptr inbounds nuw %struct.ZSTD_CCtx_params_s, ptr %72, i32 0, i32 2
  call void @llvm.memcpy.p0.p0.i64(ptr align 8 %73, ptr align 4 %7, i64 12, i1 false), !tbaa.struct !91
  br label %74

74:                                               ; preds = %70
  call void @llvm.lifetime.start.p0(i64 8, ptr %15) #15
  %75 = load ptr, ptr %9, align 8, !tbaa !11
  %76 = load ptr, ptr %10, align 8, !tbaa !148
  %77 = call i64 @ZSTD_CCtx_refCDict(ptr noundef %75, ptr noundef %76)
  store i64 %77, ptr %15, align 8, !tbaa !3
  %78 = load i64, ptr %15, align 8, !tbaa !3
  %79 = call i32 @ERR_isError(i64 noundef %78)
  %80 = icmp ne i32 %79, 0
  br i1 %80, label %81, label %95

81:                                               ; preds = %74
  br label %82

82:                                               ; preds = %81
  br label %83

83:                                               ; preds = %82
  br label %84

84:                                               ; preds = %83
  br label %85

85:                                               ; preds = %84
  br label %86

86:                                               ; preds = %85
  br label %87

87:                                               ; preds = %86
  br label %88

88:                                               ; preds = %87
  br label %89

89:                                               ; preds = %88
  br label %90

90:                                               ; preds = %89
  br label %91

91:                                               ; preds = %90
  br label %92

92:                                               ; preds = %91
  br label %93

93:                                               ; preds = %92
  %94 = load i64, ptr %15, align 8, !tbaa !3
  store i64 %94, ptr %6, align 8
  store i32 1, ptr %13, align 4
  br label %96

95:                                               ; preds = %74
  store i32 0, ptr %13, align 4
  br label %96

96:                                               ; preds = %95, %93
  call void @llvm.lifetime.end.p0(i64 8, ptr %15) #15
  %97 = load i32, ptr %13, align 4
  switch i32 %97, label %102 [
    i32 0, label %98
    i32 1, label %100
  ]

98:                                               ; preds = %96
  br label %99

99:                                               ; preds = %98
  store i64 0, ptr %6, align 8
  br label %100

100:                                              ; preds = %99, %96, %67, %41
  %101 = load i64, ptr %6, align 8
  ret i64 %101

102:                                              ; preds = %96, %67, %41
  unreachable
}