; Function Attrs: nounwind uwtable
define noundef range(i64 -60, 1) i64 @ZSTD_initCStream_usingCDict_advanced(ptr noundef captures(none) initializes((48, 60), (784, 792), (3640, 3644), (3696, 3720), (3728, 3760)) %0, ptr noundef %1, i64 %2, i32 %3, i64 noundef %4) local_unnamed_addr #2 {
ZSTD_CCtx_setPledgedSrcSize.exit:
  %5 = getelementptr inbounds nuw i8, ptr %0, i64 3640
  store i32 0, ptr %5, align 8, !tbaa !81
  %6 = getelementptr inbounds nuw i8, ptr %0, i64 784
  %7 = add i64 %4, 1
  store i64 %7, ptr %6, align 8, !tbaa !118
  %8 = getelementptr inbounds nuw i8, ptr %0, i64 48
  store i64 %2, ptr %8, align 8
  %.sroa.215.0..sroa_idx = getelementptr inbounds nuw i8, ptr %0, i64 56
  store i32 %3, ptr %.sroa.215.0..sroa_idx, align 8, !tbaa !48
  tail call fastcc void @ZSTD_clearAllDicts(ptr noundef nonnull %0)
  %9 = getelementptr inbounds nuw i8, ptr %0, i64 3728
  store ptr %1, ptr %9, align 8, !tbaa !115
  ret i64 0
}